; ModuleID = 'source-C-CXX/28/66.c'
source_filename = "source-C-CXX/28/66.c"
target datalayout = "e-m:e-p270:32:32-p271:32:32-p272:64:64-i64:64-f80:128-n8:16:32:64-S128"
target triple = "x86_64-pc-linux-gnu"

@.str = private unnamed_addr constant [3 x i8] c"%d\00", align 1
@.str.1 = private unnamed_addr constant [7 x i8] c"%.3lf\0A\00", align 1

; Function Attrs: nofree nounwind sspstrong uwtable
define dso_local i32 @main() local_unnamed_addr #0 {
  %1 = alloca i32, align 4
  %2 = alloca [100 x i32], align 16
  %3 = bitcast i32* %1 to i8*
  call void @llvm.lifetime.start.p0i8(i64 4, i8* nonnull %3) #3
  %4 = call i32 (i8*, ...) @__isoc99_scanf(i8* getelementptr inbounds ([3 x i8], [3 x i8]* @.str, i64 0, i64 0), i32* nonnull %1)
  %5 = bitcast [100 x i32]* %2 to i8*
  call void @llvm.lifetime.start.p0i8(i64 400, i8* nonnull %5) #3
  %6 = load i32, i32* %1, align 4, !tbaa !5
  %7 = icmp sgt i32 %6, 0
  br i1 %7, label %10, label %63

8:                                                ; preds = %10
  %9 = icmp sgt i32 %15, 0
  br i1 %9, label %18, label %63

10:                                               ; preds = %0, %10
  %11 = phi i64 [ %14, %10 ], [ 0, %0 ]
  %12 = getelementptr inbounds [100 x i32], [100 x i32]* %2, i64 0, i64 %11
  %13 = call i32 (i8*, ...) @__isoc99_scanf(i8* getelementptr inbounds ([3 x i8], [3 x i8]* @.str, i64 0, i64 0), i32* nonnull %12)
  %14 = add nuw nsw i64 %11, 1
  %15 = load i32, i32* %1, align 4, !tbaa !5
  %16 = sext i32 %15 to i64
  %17 = icmp slt i64 %14, %16
  br i1 %17, label %10, label %8, !llvm.loop !9

18:                                               ; preds = %8, %56
  %19 = phi i64 [ %59, %56 ], [ 0, %8 ]
  %20 = getelementptr inbounds [100 x i32], [100 x i32]* %2, i64 0, i64 %19
  %21 = load i32, i32* %20, align 4, !tbaa !5
  %22 = icmp sgt i32 %21, 0
  br i1 %22, label %23, label %56

23:                                               ; preds = %18
  %24 = and i32 %21, 1
  %25 = icmp eq i32 %21, 1
  br i1 %25, label %45, label %26

26:                                               ; preds = %23
  %27 = and i32 %21, -2
  br label %28

28:                                               ; preds = %28, %26
  %29 = phi double [ 0.000000e+00, %26 ], [ %41, %28 ]
  %30 = phi i32 [ 1, %26 ], [ %37, %28 ]
  %31 = phi i32 [ 2, %26 ], [ %42, %28 ]
  %32 = phi i32 [ %27, %26 ], [ %43, %28 ]
  %33 = sitofp i32 %31 to double
  %34 = sitofp i32 %30 to double
  %35 = fdiv double %33, %34
  %36 = fadd double %29, %35
  %37 = add nsw i32 %30, %31
  %38 = sitofp i32 %37 to double
  %39 = sitofp i32 %31 to double
  %40 = fdiv double %38, %39
  %41 = fadd double %36, %40
  %42 = add nsw i32 %31, %37
  %43 = add i32 %32, -2
  %44 = icmp eq i32 %43, 0
  br i1 %44, label %45, label %28, !llvm.loop !11

45:                                               ; preds = %28, %23
  %46 = phi double [ undef, %23 ], [ %41, %28 ]
  %47 = phi double [ 0.000000e+00, %23 ], [ %41, %28 ]
  %48 = phi i32 [ 1, %23 ], [ %37, %28 ]
  %49 = phi i32 [ 2, %23 ], [ %42, %28 ]
  %50 = icmp eq i32 %24, 0
  br i1 %50, label %56, label %51

51:                                               ; preds = %45
  %52 = sitofp i32 %49 to double
  %53 = sitofp i32 %48 to double
  %54 = fdiv double %52, %53
  %55 = fadd double %47, %54
  br label %56

56:                                               ; preds = %51, %45, %18
  %57 = phi double [ 0.000000e+00, %18 ], [ %46, %45 ], [ %55, %51 ]
  %58 = call i32 (i8*, ...) @printf(i8* nonnull dereferenceable(1) getelementptr inbounds ([7 x i8], [7 x i8]* @.str.1, i64 0, i64 0), double %57)
  %59 = add nuw nsw i64 %19, 1
  %60 = load i32, i32* %1, align 4, !tbaa !5
  %61 = sext i32 %60 to i64
  %62 = icmp slt i64 %59, %61
  br i1 %62, label %18, label %63, !llvm.loop !12

63:                                               ; preds = %56, %0, %8
  call void @llvm.lifetime.end.p0i8(i64 400, i8* nonnull %5) #3
  call void @llvm.lifetime.end.p0i8(i64 4, i8* nonnull %3) #3
  ret i32 0
}

; Function Attrs: argmemonly mustprogress nofree nosync nounwind willreturn
declare void @llvm.lifetime.start.p0i8(i64 immarg, i8* nocapture) #1

; Function Attrs: nofree nounwind
declare noundef i32 @__isoc99_scanf(i8* nocapture noundef readonly, ...) local_unnamed_addr #2

; Function Attrs: nofree nounwind
declare noundef i32 @printf(i8* nocapture noundef readonly, ...) local_unnamed_addr #2

; Function Attrs: argmemonly mustprogress nofree nosync nounwind willreturn
declare void @llvm.lifetime.end.p0i8(i64 immarg, i8* nocapture) #1


!llvm.module.flags = !{!0, !1, !2, !3}
!llvm.ident = !{!4}

!0 = !{i32 1, !"wchar_size", i32 4}
!1 = !{i32 7, !"PIC Level", i32 2}
!2 = !{i32 7, !"PIE Level", i32 2}
!3 = !{i32 7, !"uwtable", i32 1}
!4 = !{!"clang version 13.0.0"}
!5 = !{!6, !6, i64 0}
!6 = !{!"int", !7, i64 0}
!7 = !{!"omnipotent char", !8, i64 0}
!8 = !{!"Simple C/C++ TBAA"}
!9 = distinct !{!9, !10}
!10 = !{!"llvm.loop.mustprogress"}
!11 = distinct !{!11, !10}
!12 = distinct !{!12, !10}
